target datalayout = "e-m:e-p270:32:32-p271:32:32-p272:64:64-i64:64-i128:128-f80:128-n8:16:32:64-S128"
target triple = "x86_64-pc-linux-gnu"

@.str.1600 = private unnamed_addr constant [9 x i8] c"%fm (%u)\00", align 1
@.str.1601 = private unnamed_addr constant [10 x i8] c"%fkm (%u)\00", align 1

; Function Attrs: null_pointer_is_valid sspstrong uwtable
define internal void @ulp_QoP_horacc_fmt(ptr noundef %0, i32 noundef %1) #0 {
  %3 = alloca ptr, align 8
  %4 = alloca i32, align 4
  %5 = alloca double, align 8
  store ptr %0, ptr %3, align 8
  store i32 %1, ptr %4, align 4
  call void @llvm.lifetime.start.p0(i64 8, ptr %5) #6
  %6 = load i32, ptr %4, align 4
  %7 = uitofp i32 %6 to double
  %8 = call double @pow(double noundef 1.100000e+00, double noundef %7) #6
  %9 = fsub double %8, 1.000000e+00
  %10 = fmul double 1.000000e+01, %9
  store double %10, ptr %5, align 8
  %11 = load double, ptr %5, align 8
  %12 = fcmp olt double %11, 1.000000e+03
  br i1 %12, label %13, label %20

13:                                               ; preds = %2
  %14 = load ptr, ptr %3, align 8
  %15 = load ptr, ptr %3, align 8
  %16 = call i64 @llvm.objectsize.i64.p0(ptr %15, i1 false, i1 true, i1 true)
  %17 = load double, ptr %5, align 8
  %18 = load i32, ptr %4, align 4
  %19 = call i32 (ptr, i64, i32, i64, ptr, ...) @__snprintf_chk(ptr noundef %14, i64 noundef 240, i32 noundef 2, i64 noundef %16, ptr noundef @.str.1600, double noundef %17, i32 noundef %18)
  br label %28

20:                                               ; preds = %2
  %21 = load ptr, ptr %3, align 8
  %22 = load ptr, ptr %3, align 8
  %23 = call i64 @llvm.objectsize.i64.p0(ptr %22, i1 false, i1 true, i1 true)
  %24 = load double, ptr %5, align 8
  %25 = fdiv double %24, 1.000000e+03
  %26 = load i32, ptr %4, align 4
  %27 = call i32 (ptr, i64, i32, i64, ptr, ...) @__snprintf_chk(ptr noundef %21, i64 noundef 240, i32 noundef 2, i64 noundef %23, ptr noundef @.str.1601, double noundef %25, i32 noundef %26)
  br label %28

28:                                               ; preds = %20, %13
  call void @llvm.lifetime.end.p0(i64 8, ptr %5) #6
  ret void
}