; Function Attrs: nofree null_pointer_is_valid sspstrong uwtable
define internal void @ulp_QoP_horacc_fmt(ptr noundef %0, i32 noundef %1) #1 {
  %3 = uitofp i32 %1 to double
  %4 = tail call double @pow(double noundef 1.100000e+00, double noundef %3) #8
  %5 = fadd double %4, -1.000000e+00
  %6 = fmul double %5, 1.000000e+01
  %7 = fcmp olt double %6, 1.000000e+03
  br i1 %7, label %8, label %10

8:                                                ; preds = %2
  %9 = tail call i32 (ptr, i64, i32, i64, ptr, ...) @__snprintf_chk(ptr noundef %0, i64 noundef 240, i32 noundef 2, i64 noundef -1, ptr noundef nonnull @.str.1600, double noundef %6, i32 noundef %1)
  br label %13

10:                                               ; preds = %2
  %11 = fdiv double %6, 1.000000e+03
  %12 = tail call i32 (ptr, i64, i32, i64, ptr, ...) @__snprintf_chk(ptr noundef %0, i64 noundef 240, i32 noundef 2, i64 noundef -1, ptr noundef nonnull @.str.1601, double noundef %11, i32 noundef %1)
  br label %13

13:                                               ; preds = %10, %8
  ret void
}